target datalayout = "e-m:e-p270:32:32-p271:32:32-p272:64:64-i64:64-i128:128-f80:128-n8:16:32:64-S128"
target triple = "x86_64-pc-linux-gnu"

@.str.15 = private unnamed_addr constant [6 x i8] c"ERROR\00", align 1
@.str.98 = private unnamed_addr constant [3 x i8] c"OK\00", align 1
@.str.173 = private unnamed_addr constant [8 x i8] c"sleep 0\00", align 1

; Function Attrs: nounwind uwtable
define internal void @process_misbehave_command(ptr noundef %0) #0 {
  %2 = alloca ptr, align 8
  %3 = alloca i32, align 4
  %4 = alloca i32, align 4
  store ptr %0, ptr %2, align 8, !tbaa !4
  call void @llvm.lifetime.start.p0(i64 4, ptr %3) #8
  store i32 0, ptr %3, align 4, !tbaa !30
  call void @llvm.lifetime.start.p0(i64 4, ptr %4) #8
  %5 = call i32 @socket(i32 noundef 2, i32 noundef 1, i32 noundef 0) #8
  store i32 %5, ptr %4, align 4, !tbaa !30
  %6 = load i32, ptr %4, align 4, !tbaa !30
  %7 = icmp ne i32 %6, -1
  br i1 %7, label %8, label %13

8:                                                ; preds = %1
  %9 = load i32, ptr %3, align 4, !tbaa !30
  %10 = add nsw i32 %9, 1
  store i32 %10, ptr %3, align 4, !tbaa !30
  %11 = load i32, ptr %4, align 4, !tbaa !30
  %12 = call i32 @close(i32 noundef %11)
  br label %13

13:                                               ; preds = %8, %1
  %14 = call i32 @system(ptr noundef @.str.173)
  store i32 %14, ptr %4, align 4, !tbaa !30
  %15 = load i32, ptr %4, align 4, !tbaa !30
  %16 = icmp ne i32 %15, -1
  br i1 %16, label %17, label %20

17:                                               ; preds = %13
  %18 = load i32, ptr %3, align 4, !tbaa !30
  %19 = add nsw i32 %18, 1
  store i32 %19, ptr %3, align 4, !tbaa !30
  br label %20

20:                                               ; preds = %17, %13
  %21 = load i32, ptr %3, align 4, !tbaa !30
  %22 = icmp ne i32 %21, 0
  br i1 %22, label %23, label %25

23:                                               ; preds = %20
  %24 = load ptr, ptr %2, align 8, !tbaa !4
  call void @out_string(ptr noundef %24, ptr noundef @.str.15)
  br label %27

25:                                               ; preds = %20
  %26 = load ptr, ptr %2, align 8, !tbaa !4
  call void @out_string(ptr noundef %26, ptr noundef @.str.98)
  br label %27

27:                                               ; preds = %25, %23
  call void @llvm.lifetime.end.p0(i64 4, ptr %4) #8
  call void @llvm.lifetime.end.p0(i64 4, ptr %3) #8
  ret void
}