; Function Attrs: nounwind uwtable
define internal fastcc void @process_misbehave_command(ptr noundef %0) unnamed_addr #0 {
  %2 = tail call i32 @socket(i32 noundef 2, i32 noundef 1, i32 noundef 0) #13
  %.not = icmp eq i32 %2, -1
  br i1 %.not, label %5, label %3

3:                                                ; preds = %1
  %4 = tail call i32 @close(i32 noundef %2) #13
  br label %5

5:                                                ; preds = %3, %1
  %6 = tail call i32 @system(ptr noundef nonnull @.str.173) #13
  %7 = and i32 %6, %2
  %.not9 = icmp eq i32 %7, -1
  %.str.98..str.15 = select i1 %.not9, ptr @.str.98, ptr @.str.15
  tail call void @out_string(ptr noundef %0, ptr noundef nonnull %.str.98..str.15) #13
  ret void
}